
/tmp/tmp.o:     file format elf64-x86-64


Disassembly of section .text:

0000000000000000 <loop>:
   0:	55                   	push   rbp
   1:	48 89 e5             	mov    rbp,rsp
   4:	48 83 ec 10          	sub    rsp,0x10
   8:	b8 00 00 00 00       	mov    eax,0x0
   d:	89 45 fc             	mov    DWORD PTR [rbp-0x4],eax
  10:	8b 45 fc             	mov    eax,DWORD PTR [rbp-0x4]
  13:	b9 e8 03 00 00       	mov    ecx,0x3e8
  18:	39 c8                	cmp    eax,ecx
  1a:	0f 9c c0             	setl   al
  1d:	0f b6 c0             	movzx  eax,al
  20:	89 45 f8             	mov    DWORD PTR [rbp-0x8],eax
  23:	8b 45 f8             	mov    eax,DWORD PTR [rbp-0x8]
  26:	85 c0                	test   eax,eax
  28:	0f 84 12 00 00 00    	je     40 <loop+0x40>
  2e:	8b 45 fc             	mov    eax,DWORD PTR [rbp-0x4]
  31:	b9 01 00 00 00       	mov    ecx,0x1
  36:	01 c8                	add    eax,ecx
  38:	89 45 fc             	mov    DWORD PTR [rbp-0x4],eax
  3b:	e9 d0 ff ff ff       	jmp    10 <loop+0x10>
  40:	8b 45 fc             	mov    eax,DWORD PTR [rbp-0x4]
  43:	c9                   	leave
  44:	c3                   	ret

0000000000000045 <loop_break>:
  45:	55                   	push   rbp
  46:	48 89 e5             	mov    rbp,rsp
  49:	48 83 ec 10          	sub    rsp,0x10
  4d:	b8 00 00 00 00       	mov    eax,0x0
  52:	89 45 fc             	mov    DWORD PTR [rbp-0x4],eax
  55:	8b 45 fc             	mov    eax,DWORD PTR [rbp-0x4]
  58:	b9 e8 03 00 00       	mov    ecx,0x3e8
  5d:	39 c8                	cmp    eax,ecx
  5f:	0f 9c c0             	setl   al
  62:	0f b6 c0             	movzx  eax,al
  65:	89 45 f8             	mov    DWORD PTR [rbp-0x8],eax
  68:	8b 45 f8             	mov    eax,DWORD PTR [rbp-0x8]
  6b:	85 c0                	test   eax,eax
  6d:	0f 84 35 00 00 00    	je     a8 <loop_break+0x63>
  73:	8b 45 fc             	mov    eax,DWORD PTR [rbp-0x4]
  76:	b9 01 00 00 00       	mov    ecx,0x1
  7b:	01 c8                	add    eax,ecx
  7d:	89 45 fc             	mov    DWORD PTR [rbp-0x4],eax
  80:	8b 45 fc             	mov    eax,DWORD PTR [rbp-0x4]
  83:	b9 f4 01 00 00       	mov    ecx,0x1f4
  88:	39 c8                	cmp    eax,ecx
  8a:	0f 94 c0             	sete   al
  8d:	0f b6 c0             	movzx  eax,al
  90:	89 45 f8             	mov    DWORD PTR [rbp-0x8],eax
  93:	8b 45 f8             	mov    eax,DWORD PTR [rbp-0x8]
  96:	85 c0                	test   eax,eax
  98:	0f 84 05 00 00 00    	je     a3 <loop_break+0x5e>
  9e:	e9 05 00 00 00       	jmp    a8 <loop_break+0x63>
  a3:	e9 ad ff ff ff       	jmp    55 <loop_break+0x10>
  a8:	8b 45 fc             	mov    eax,DWORD PTR [rbp-0x4]
  ab:	c9                   	leave
  ac:	c3                   	ret

00000000000000ad <loop_continue>:
  ad:	55                   	push   rbp
  ae:	48 89 e5             	mov    rbp,rsp
  b1:	48 83 ec 10          	sub    rsp,0x10
  b5:	b8 00 00 00 00       	mov    eax,0x0
  ba:	48 89 45 f8          	mov    QWORD PTR [rbp-0x8],rax
  be:	48 8b 45 f8          	mov    rax,QWORD PTR [rbp-0x8]
  c2:	b9 e8 03 00 00       	mov    ecx,0x3e8
  c7:	48 39 c8             	cmp    rax,rcx
  ca:	0f 9c c0             	setl   al
  cd:	48 0f b6 c0          	movzx  rax,al
  d1:	48 89 45 f0          	mov    QWORD PTR [rbp-0x10],rax
  d5:	48 8b 45 f0          	mov    rax,QWORD PTR [rbp-0x10]
  d9:	48 85 c0             	test   rax,rax
  dc:	0f 84 4e 00 00 00    	je     130 <loop_continue+0x83>
  e2:	48 8b 45 f8          	mov    rax,QWORD PTR [rbp-0x8]
  e6:	b9 01 00 00 00       	mov    ecx,0x1
  eb:	48 01 c8             	add    rax,rcx
  ee:	48 89 45 f8          	mov    QWORD PTR [rbp-0x8],rax
  f2:	48 8b 45 f8          	mov    rax,QWORD PTR [rbp-0x8]
  f6:	b9 f4 01 00 00       	mov    ecx,0x1f4
  fb:	48 39 c8             	cmp    rax,rcx
  fe:	0f 9f c0             	setg   al
 101:	48 0f b6 c0          	movzx  rax,al
 105:	48 89 45 f0          	mov    QWORD PTR [rbp-0x10],rax
 109:	48 8b 45 f0          	mov    rax,QWORD PTR [rbp-0x10]
 10d:	48 85 c0             	test   rax,rax
 110:	0f 84 05 00 00 00    	je     11b <loop_continue+0x6e>
 116:	e9 a3 ff ff ff       	jmp    be <loop_continue+0x11>
 11b:	48 8b 45 f8          	mov    rax,QWORD PTR [rbp-0x8]
 11f:	b9 01 00 00 00       	mov    ecx,0x1
 124:	48 01 c8             	add    rax,rcx
 127:	48 89 45 f8          	mov    QWORD PTR [rbp-0x8],rax
 12b:	e9 8e ff ff ff       	jmp    be <loop_continue+0x11>
 130:	48 8b 45 f8          	mov    rax,QWORD PTR [rbp-0x8]
 134:	c9                   	leave
 135:	c3                   	ret
