
/tmp/tmp.o:     file format elf64-x86-64


Disassembly of section .text:

0000000000000000 <loop>:
   0:	55                   	push   rbp
   1:	48 89 e5             	mov    rbp,rsp
   4:	48 83 ec 10          	sub    rsp,0x10
   8:	b8 00 00 00 00       	mov    eax,0x0
   d:	48 89 45 f8          	mov    QWORD PTR [rbp-0x8],rax
  11:	48 8b 45 f8          	mov    rax,QWORD PTR [rbp-0x8]
  15:	b9 e8 03 00 00       	mov    ecx,0x3e8
  1a:	48 39 c8             	cmp    rax,rcx
  1d:	0f 9c c0             	setl   al
  20:	48 0f b6 c0          	movzx  rax,al
  24:	48 89 45 f0          	mov    QWORD PTR [rbp-0x10],rax
  28:	48 8b 45 f0          	mov    rax,QWORD PTR [rbp-0x10]
  2c:	48 85 c0             	test   rax,rax
  2f:	0f 84 15 00 00 00    	je     4a <loop+0x4a>
  35:	48 8b 45 f8          	mov    rax,QWORD PTR [rbp-0x8]
  39:	b9 01 00 00 00       	mov    ecx,0x1
  3e:	48 01 c8             	add    rax,rcx
  41:	48 89 45 f8          	mov    QWORD PTR [rbp-0x8],rax
  45:	e9 c7 ff ff ff       	jmp    11 <loop+0x11>
  4a:	48 8b 45 f8          	mov    rax,QWORD PTR [rbp-0x8]
  4e:	c9                   	leave
  4f:	c3                   	ret

0000000000000050 <loop_break>:
  50:	55                   	push   rbp
  51:	48 89 e5             	mov    rbp,rsp
  54:	48 83 ec 10          	sub    rsp,0x10
  58:	b8 00 00 00 00       	mov    eax,0x0
  5d:	48 89 45 f8          	mov    QWORD PTR [rbp-0x8],rax
  61:	48 8b 45 f8          	mov    rax,QWORD PTR [rbp-0x8]
  65:	b9 e8 03 00 00       	mov    ecx,0x3e8
  6a:	48 39 c8             	cmp    rax,rcx
  6d:	0f 9c c0             	setl   al
  70:	48 0f b6 c0          	movzx  rax,al
  74:	48 89 45 f0          	mov    QWORD PTR [rbp-0x10],rax
  78:	48 8b 45 f0          	mov    rax,QWORD PTR [rbp-0x10]
  7c:	48 85 c0             	test   rax,rax
  7f:	0f 84 3e 00 00 00    	je     c3 <loop_break+0x73>
  85:	48 8b 45 f8          	mov    rax,QWORD PTR [rbp-0x8]
  89:	b9 01 00 00 00       	mov    ecx,0x1
  8e:	48 01 c8             	add    rax,rcx
  91:	48 89 45 f8          	mov    QWORD PTR [rbp-0x8],rax
  95:	48 8b 45 f8          	mov    rax,QWORD PTR [rbp-0x8]
  99:	b9 f4 01 00 00       	mov    ecx,0x1f4
  9e:	48 39 c8             	cmp    rax,rcx
  a1:	0f 94 c0             	sete   al
  a4:	48 0f b6 c0          	movzx  rax,al
  a8:	48 89 45 f0          	mov    QWORD PTR [rbp-0x10],rax
  ac:	48 8b 45 f0          	mov    rax,QWORD PTR [rbp-0x10]
  b0:	48 85 c0             	test   rax,rax
  b3:	0f 84 05 00 00 00    	je     be <loop_break+0x6e>
  b9:	e9 05 00 00 00       	jmp    c3 <loop_break+0x73>
  be:	e9 9e ff ff ff       	jmp    61 <loop_break+0x11>
  c3:	48 8b 45 f8          	mov    rax,QWORD PTR [rbp-0x8]
  c7:	c9                   	leave
  c8:	c3                   	ret

00000000000000c9 <loop_continue>:
  c9:	55                   	push   rbp
  ca:	48 89 e5             	mov    rbp,rsp
  cd:	48 83 ec 10          	sub    rsp,0x10
  d1:	b8 00 00 00 00       	mov    eax,0x0
  d6:	48 89 45 f8          	mov    QWORD PTR [rbp-0x8],rax
  da:	48 8b 45 f8          	mov    rax,QWORD PTR [rbp-0x8]
  de:	b9 e8 03 00 00       	mov    ecx,0x3e8
  e3:	48 39 c8             	cmp    rax,rcx
  e6:	0f 9c c0             	setl   al
  e9:	48 0f b6 c0          	movzx  rax,al
  ed:	48 89 45 f0          	mov    QWORD PTR [rbp-0x10],rax
  f1:	48 8b 45 f0          	mov    rax,QWORD PTR [rbp-0x10]
  f5:	48 85 c0             	test   rax,rax
  f8:	0f 84 4e 00 00 00    	je     14c <loop_continue+0x83>
  fe:	48 8b 45 f8          	mov    rax,QWORD PTR [rbp-0x8]
 102:	b9 01 00 00 00       	mov    ecx,0x1
 107:	48 01 c8             	add    rax,rcx
 10a:	48 89 45 f8          	mov    QWORD PTR [rbp-0x8],rax
 10e:	48 8b 45 f8          	mov    rax,QWORD PTR [rbp-0x8]
 112:	b9 f4 01 00 00       	mov    ecx,0x1f4
 117:	48 39 c8             	cmp    rax,rcx
 11a:	0f 9f c0             	setg   al
 11d:	48 0f b6 c0          	movzx  rax,al
 121:	48 89 45 f0          	mov    QWORD PTR [rbp-0x10],rax
 125:	48 8b 45 f0          	mov    rax,QWORD PTR [rbp-0x10]
 129:	48 85 c0             	test   rax,rax
 12c:	0f 84 05 00 00 00    	je     137 <loop_continue+0x6e>
 132:	e9 a3 ff ff ff       	jmp    da <loop_continue+0x11>
 137:	48 8b 45 f8          	mov    rax,QWORD PTR [rbp-0x8]
 13b:	b9 01 00 00 00       	mov    ecx,0x1
 140:	48 01 c8             	add    rax,rcx
 143:	48 89 45 f8          	mov    QWORD PTR [rbp-0x8],rax
 147:	e9 8e ff ff ff       	jmp    da <loop_continue+0x11>
 14c:	48 8b 45 f8          	mov    rax,QWORD PTR [rbp-0x8]
 150:	c9                   	leave
 151:	c3                   	ret
